; Function Attrs: nounwind uwtable
define nonnull ptr @l_Lean_LocalDecl_isAuxDecl___boxed(ptr noundef %0) local_unnamed_addr #2 {
  %2 = ptrtoint ptr %0 to i64
  %3 = and i64 %2, 1
  %.not.i.i.i = icmp eq i64 %3, 0
  br i1 %.not.i.i.i, label %6, label %l_Lean_LocalDecl_isAuxDecl.exit.thread

l_Lean_LocalDecl_isAuxDecl.exit.thread:           ; preds = %1
  %4 = and i64 %2, 8589934590
  %5 = icmp eq i64 %4, 0
  %.0.in.v.i.i4 = select i1 %5, i64 41, i64 49
  %.0.in.i.i5 = getelementptr inbounds nuw i8, ptr %0, i64 %.0.in.v.i.i4
  %.0.i.i6 = load i8, ptr %.0.in.i.i5, align 1, !tbaa !18
  br label %lean_dec.exit

6:                                                ; preds = %1
  %7 = getelementptr i8, ptr %0, i64 4
  %.val.i.i.i = load i32, ptr %7, align 4
  %8 = icmp ult i32 %.val.i.i.i, 16777216
  %.0.in.v.i.i = select i1 %8, i64 41, i64 49
  %.0.in.i.i = getelementptr inbounds nuw i8, ptr %0, i64 %.0.in.v.i.i
  %.0.i.i = load i8, ptr %.0.in.i.i, align 1, !tbaa !18
  %9 = load i32, ptr %0, align 4, !tbaa !4
  %10 = icmp sgt i32 %9, 1
  br i1 %10, label %11, label %13, !prof !11

11:                                               ; preds = %6
  %12 = add nsw i32 %9, -1
  store i32 %12, ptr %0, align 4, !tbaa !4
  br label %lean_dec.exit

13:                                               ; preds = %6
  %.not.i = icmp eq i32 %9, 0
  br i1 %.not.i, label %lean_dec.exit, label %14

14:                                               ; preds = %13
  tail call void @lean_dec_ref_cold(ptr noundef nonnull %0) #8
  br label %lean_dec.exit

lean_dec.exit:                                    ; preds = %14, %13, %11, %l_Lean_LocalDecl_isAuxDecl.exit.thread
  %.in.in = phi i8 [ %.0.i.i6, %l_Lean_LocalDecl_isAuxDecl.exit.thread ], [ %.0.i.i, %11 ], [ %.0.i.i, %13 ], [ %.0.i.i, %14 ]
  %.in = icmp ugt i8 %.in.in, 1
  %15 = select i1 %.in, ptr inttoptr (i64 3 to ptr), ptr inttoptr (i64 1 to ptr)
  ret ptr %15
}